target datalayout = "e-m:e-p270:32:32-p271:32:32-p272:64:64-i64:64-i128:128-f80:128-n8:16:32:64-S128"
target triple = "x86_64-pc-linux-gnu"

%struct.H5E_msg_t = type { i8, ptr, i32, ptr }

@H5E_init_g = external global i8, align 1
@H5_libterm_g = external global i8, align 1

; Function Attrs: nounwind uwtable
define i64 @H5E__get_msg(ptr noundef %0, ptr noundef %1, ptr noundef %2, i64 noundef %3) #0 {
  %5 = alloca ptr, align 8
  %6 = alloca ptr, align 8
  %7 = alloca ptr, align 8
  %8 = alloca i64, align 8
  %9 = alloca i64, align 8
  store ptr %0, ptr %5, align 8, !tbaa !39
  store ptr %1, ptr %6, align 8, !tbaa !49
  store ptr %2, ptr %7, align 8, !tbaa !13
  store i64 %3, ptr %8, align 8, !tbaa !11
  call void @llvm.lifetime.start.p0(i64 8, ptr %9) #9
  store i64 -1, ptr %9, align 8, !tbaa !11
  %10 = load i8, ptr @H5E_init_g, align 1, !tbaa !7, !range !9, !noundef !10
  %11 = trunc i8 %10 to i1
  br i1 %11, label %16, label %12

12:                                               ; preds = %4
  %13 = load i8, ptr @H5_libterm_g, align 1, !tbaa !7, !range !9, !noundef !10
  %14 = trunc i8 %13 to i1
  %15 = xor i1 %14, true
  br label %16

16:                                               ; preds = %12, %4
  %17 = phi i1 [ true, %4 ], [ %15, %12 ]
  %18 = xor i1 %17, true
  %19 = xor i1 %18, true
  %20 = zext i1 %19 to i32
  %21 = sext i32 %20 to i64
  %22 = call i64 @llvm.expect.i64(i64 %21, i64 1)
  %23 = icmp ne i64 %22, 0
  br i1 %23, label %24, label %56

24:                                               ; preds = %16
  %25 = load ptr, ptr %5, align 8, !tbaa !39
  %26 = getelementptr inbounds nuw %struct.H5E_msg_t, ptr %25, i32 0, i32 1
  %27 = load ptr, ptr %26, align 8, !tbaa !45
  %28 = call i64 @strlen(ptr noundef %27) #10
  store i64 %28, ptr %9, align 8, !tbaa !11
  %29 = load ptr, ptr %7, align 8, !tbaa !13
  %30 = icmp ne ptr %29, null
  br i1 %30, label %31, label %47

31:                                               ; preds = %24
  %32 = load ptr, ptr %7, align 8, !tbaa !13
  %33 = load ptr, ptr %5, align 8, !tbaa !39
  %34 = getelementptr inbounds nuw %struct.H5E_msg_t, ptr %33, i32 0, i32 1
  %35 = load ptr, ptr %34, align 8, !tbaa !45
  %36 = load i64, ptr %8, align 8, !tbaa !11
  %37 = call ptr @strncpy(ptr noundef %32, ptr noundef %35, i64 noundef %36) #9
  %38 = load i64, ptr %9, align 8, !tbaa !11
  %39 = load i64, ptr %8, align 8, !tbaa !11
  %40 = icmp uge i64 %38, %39
  br i1 %40, label %41, label %46

41:                                               ; preds = %31
  %42 = load ptr, ptr %7, align 8, !tbaa !13
  %43 = load i64, ptr %8, align 8, !tbaa !11
  %44 = sub i64 %43, 1
  %45 = getelementptr inbounds nuw i8, ptr %42, i64 %44
  store i8 0, ptr %45, align 1, !tbaa !28
  br label %46

46:                                               ; preds = %41, %31
  br label %47

47:                                               ; preds = %46, %24
  %48 = load ptr, ptr %6, align 8, !tbaa !49
  %49 = icmp ne ptr %48, null
  br i1 %49, label %50, label %55

50:                                               ; preds = %47
  %51 = load ptr, ptr %5, align 8, !tbaa !39
  %52 = getelementptr inbounds nuw %struct.H5E_msg_t, ptr %51, i32 0, i32 2
  %53 = load i32, ptr %52, align 8, !tbaa !44
  %54 = load ptr, ptr %6, align 8, !tbaa !49
  store i32 %53, ptr %54, align 4, !tbaa !3
  br label %55

55:                                               ; preds = %50, %47
  br label %56

56:                                               ; preds = %55, %16
  %57 = load i64, ptr %9, align 8, !tbaa !11
  call void @llvm.lifetime.end.p0(i64 8, ptr %9) #9
  ret i64 %57
}