; Function Attrs: mustprogress nofree nounwind willreturn memory(readwrite, inaccessiblemem: none) uwtable
define i64 @H5E__get_msg(ptr noundef readonly captures(none) %0, ptr noundef writeonly captures(address_is_null) %1, ptr noundef %2, i64 noundef %3) local_unnamed_addr #5 {
  %5 = load i8, ptr @H5E_init_g, align 1, !tbaa !3, !range !7, !noundef !8
  %6 = trunc nuw i8 %5 to i1
  %7 = load i8, ptr @H5_libterm_g, align 1, !range !7
  %8 = trunc nuw i8 %7 to i1
  %9 = xor i1 %8, true
  %10 = select i1 %6, i1 true, i1 %9
  br i1 %10, label %11, label %24, !prof !9

11:                                               ; preds = %4
  %12 = getelementptr inbounds nuw i8, ptr %0, i64 8
  %13 = load ptr, ptr %12, align 8, !tbaa !48
  %14 = tail call i64 @strlen(ptr noundef nonnull dereferenceable(1) %13) #17
  %.not = icmp eq ptr %2, null
  br i1 %.not, label %20, label %15

15:                                               ; preds = %11
  %16 = tail call ptr @strncpy(ptr noundef nonnull %2, ptr noundef nonnull %13, i64 noundef %3) #16
  %.not15 = icmp ult i64 %14, %3
  br i1 %.not15, label %20, label %17

17:                                               ; preds = %15
  %18 = getelementptr i8, ptr %2, i64 %3
  %19 = getelementptr i8, ptr %18, i64 -1
  store i8 0, ptr %19, align 1, !tbaa !33
  br label %20

20:                                               ; preds = %15, %17, %11
  %.not16 = icmp eq ptr %1, null
  br i1 %.not16, label %24, label %21

21:                                               ; preds = %20
  %22 = getelementptr inbounds nuw i8, ptr %0, i64 16
  %23 = load i32, ptr %22, align 8, !tbaa !47
  store i32 %23, ptr %1, align 4, !tbaa !52
  br label %24

24:                                               ; preds = %20, %21, %4
  %.0 = phi i64 [ %14, %21 ], [ %14, %20 ], [ -1, %4 ]
  ret i64 %.0
}